; Function Attrs: mustprogress uwtable
define void @_ZN8facebook5velox6memory13MmapAllocator13markAllMappedERKNS1_10AllocationE(ptr nocapture noundef nonnull readonly align 8 dereferenceable(1080) %this, ptr nocapture noundef nonnull readonly align 8 dereferenceable(36) %allocation) local_unnamed_addr #0 align 2 {
entry:
  %sizeClasses_ = getelementptr inbounds i8, ptr %this, i64 960
  %0 = load ptr, ptr %sizeClasses_, align 8
  %_M_finish.i = getelementptr inbounds i8, ptr %this, i64 968
  %1 = load ptr, ptr %_M_finish.i, align 8
  %cmp.i.not4 = icmp eq ptr %0, %1
  br i1 %cmp.i.not4, label %for.end, label %for.body

for.body:                                         ; preds = %entry, %for.body
  %__begin2.sroa.0.05 = phi ptr [ %incdec.ptr.i, %for.body ], [ %0, %entry ]
  %2 = load ptr, ptr %__begin2.sroa.0.05, align 8
  tail call void @_ZN8facebook5velox6memory13MmapAllocator9SizeClass12setAllMappedERKNS1_10AllocationEb(ptr noundef nonnull align 8 dereferenceable(192) %2, ptr noundef nonnull align 8 dereferenceable(36) %allocation, i1 noundef zeroext true)
  %incdec.ptr.i = getelementptr inbounds i8, ptr %__begin2.sroa.0.05, i64 8
  %cmp.i.not = icmp eq ptr %incdec.ptr.i, %1
  br i1 %cmp.i.not, label %for.end, label %for.body

for.end:                                          ; preds = %for.body, %entry
  ret void
}